target datalayout = "e-m:e-p270:32:32-p271:32:32-p272:64:64-i64:64-i128:128-f80:128-n8:16:32:64-S128"
target triple = "x86_64-pc-linux-gnu"

; Function Attrs: inlinehint mustprogress nounwind uwtable
define linkonce_odr noundef nonnull align 4 dereferenceable(4) ptr @_ZSt3maxIfERKT_S2_S2_(ptr noundef nonnull align 4 dereferenceable(4) %0, ptr noundef nonnull align 4 dereferenceable(4) %1) #2 comdat {
  %3 = alloca ptr, align 8
  %4 = alloca ptr, align 8
  %5 = alloca ptr, align 8
  store ptr %0, ptr %4, align 8, !tbaa !8
  store ptr %1, ptr %5, align 8, !tbaa !8
  %6 = load ptr, ptr %4, align 8, !tbaa !8
  %7 = load float, ptr %6, align 4, !tbaa !11
  %8 = load ptr, ptr %5, align 8, !tbaa !8
  %9 = load float, ptr %8, align 4, !tbaa !11
  %10 = fcmp olt float %7, %9
  br i1 %10, label %11, label %13

11:                                               ; preds = %2
  %12 = load ptr, ptr %5, align 8, !tbaa !8
  store ptr %12, ptr %3, align 8
  br label %15

13:                                               ; preds = %2
  %14 = load ptr, ptr %4, align 8, !tbaa !8
  store ptr %14, ptr %3, align 8
  br label %15

15:                                               ; preds = %13, %11
  %16 = load ptr, ptr %3, align 8
  ret ptr %16
}

; Function Attrs: inlinehint mustprogress nounwind uwtable
define linkonce_odr noundef nonnull align 4 dereferenceable(4) ptr @_ZSt3minIfERKT_S2_S2_(ptr noundef nonnull align 4 dereferenceable(4) %0, ptr noundef nonnull align 4 dereferenceable(4) %1) #2 comdat {
  %3 = alloca ptr, align 8
  %4 = alloca ptr, align 8
  %5 = alloca ptr, align 8
  store ptr %0, ptr %4, align 8, !tbaa !8
  store ptr %1, ptr %5, align 8, !tbaa !8
  %6 = load ptr, ptr %5, align 8, !tbaa !8
  %7 = load float, ptr %6, align 4, !tbaa !11
  %8 = load ptr, ptr %4, align 8, !tbaa !8
  %9 = load float, ptr %8, align 4, !tbaa !11
  %10 = fcmp olt float %7, %9
  br i1 %10, label %11, label %13

11:                                               ; preds = %2
  %12 = load ptr, ptr %5, align 8, !tbaa !8
  store ptr %12, ptr %3, align 8
  br label %15

13:                                               ; preds = %2
  %14 = load ptr, ptr %4, align 8, !tbaa !8
  store ptr %14, ptr %3, align 8
  br label %15

15:                                               ; preds = %13, %11
  %16 = load ptr, ptr %3, align 8
  ret ptr %16
}

; Function Attrs: mustprogress uwtable
define void @_Z12make_new_boxiPA3_fS0_PKfb(i32 noundef %0, ptr noundef %1, ptr noundef %2, ptr noundef %3, i1 noundef zeroext %4) #0 {
  %6 = alloca i32, align 4
  %7 = alloca ptr, align 8
  %8 = alloca ptr, align 8
  %9 = alloca ptr, align 8
  %10 = alloca i8, align 1
  %11 = alloca i32, align 4
  %12 = alloca i32, align 4
  %13 = alloca [3 x float], align 4
  %14 = alloca [3 x float], align 4
  store i32 %0, ptr %6, align 4, !tbaa !4
  store ptr %1, ptr %7, align 8, !tbaa !8
  store ptr %2, ptr %8, align 8, !tbaa !8
  store ptr %3, ptr %9, align 8, !tbaa !8
  %15 = zext i1 %4 to i8
  store i8 %15, ptr %10, align 1, !tbaa !15
  call void @llvm.lifetime.start.p0(i64 4, ptr %11) #5
  call void @llvm.lifetime.start.p0(i64 4, ptr %12) #5
  call void @llvm.lifetime.start.p0(i64 12, ptr %13) #5
  call void @llvm.lifetime.start.p0(i64 12, ptr %14) #5
  store i32 0, ptr %12, align 4, !tbaa !4
  br label %16

16:                                               ; preds = %32, %5
  %17 = load i32, ptr %12, align 4, !tbaa !4
  %18 = icmp slt i32 %17, 3
  br i1 %18, label %19, label %35

19:                                               ; preds = %16
  %20 = load ptr, ptr %7, align 8, !tbaa !8
  %21 = getelementptr inbounds [3 x float], ptr %20, i64 0
  %22 = load i32, ptr %12, align 4, !tbaa !4
  %23 = sext i32 %22 to i64
  %24 = getelementptr inbounds [3 x float], ptr %21, i64 0, i64 %23
  %25 = load float, ptr %24, align 4, !tbaa !11
  %26 = load i32, ptr %12, align 4, !tbaa !4
  %27 = sext i32 %26 to i64
  %28 = getelementptr inbounds [3 x float], ptr %14, i64 0, i64 %27
  store float %25, ptr %28, align 4, !tbaa !11
  %29 = load i32, ptr %12, align 4, !tbaa !4
  %30 = sext i32 %29 to i64
  %31 = getelementptr inbounds [3 x float], ptr %13, i64 0, i64 %30
  store float %25, ptr %31, align 4, !tbaa !11
  br label %32

32:                                               ; preds = %19
  %33 = load i32, ptr %12, align 4, !tbaa !4
  %34 = add nsw i32 %33, 1
  store i32 %34, ptr %12, align 4, !tbaa !4
  br label %16, !llvm.loop !17

35:                                               ; preds = %16
  store i32 1, ptr %11, align 4, !tbaa !4
  br label %36

36:                                               ; preds = %79, %35
  %37 = load i32, ptr %11, align 4, !tbaa !4
  %38 = load i32, ptr %6, align 4, !tbaa !4
  %39 = icmp slt i32 %37, %38
  br i1 %39, label %40, label %82

40:                                               ; preds = %36
  store i32 0, ptr %12, align 4, !tbaa !4
  br label %41

41:                                               ; preds = %75, %40
  %42 = load i32, ptr %12, align 4, !tbaa !4
  %43 = icmp slt i32 %42, 3
  br i1 %43, label %44, label %78

44:                                               ; preds = %41
  %45 = load i32, ptr %12, align 4, !tbaa !4
  %46 = sext i32 %45 to i64
  %47 = getelementptr inbounds [3 x float], ptr %13, i64 0, i64 %46
  %48 = load ptr, ptr %7, align 8, !tbaa !8
  %49 = load i32, ptr %11, align 4, !tbaa !4
  %50 = sext i32 %49 to i64
  %51 = getelementptr inbounds [3 x float], ptr %48, i64 %50
  %52 = load i32, ptr %12, align 4, !tbaa !4
  %53 = sext i32 %52 to i64
  %54 = getelementptr inbounds [3 x float], ptr %51, i64 0, i64 %53
  %55 = call noundef nonnull align 4 dereferenceable(4) ptr @_ZSt3minIfERKT_S2_S2_(ptr noundef nonnull align 4 dereferenceable(4) %47, ptr noundef nonnull align 4 dereferenceable(4) %54)
  %56 = load float, ptr %55, align 4, !tbaa !11
  %57 = load i32, ptr %12, align 4, !tbaa !4
  %58 = sext i32 %57 to i64
  %59 = getelementptr inbounds [3 x float], ptr %13, i64 0, i64 %58
  store float %56, ptr %59, align 4, !tbaa !11
  %60 = load i32, ptr %12, align 4, !tbaa !4
  %61 = sext i32 %60 to i64
  %62 = getelementptr inbounds [3 x float], ptr %14, i64 0, i64 %61
  %63 = load ptr, ptr %7, align 8, !tbaa !8
  %64 = load i32, ptr %11, align 4, !tbaa !4
  %65 = sext i32 %64 to i64
  %66 = getelementptr inbounds [3 x float], ptr %63, i64 %65
  %67 = load i32, ptr %12, align 4, !tbaa !4
  %68 = sext i32 %67 to i64
  %69 = getelementptr inbounds [3 x float], ptr %66, i64 0, i64 %68
  %70 = call noundef nonnull align 4 dereferenceable(4) ptr @_ZSt3maxIfERKT_S2_S2_(ptr noundef nonnull align 4 dereferenceable(4) %62, ptr noundef nonnull align 4 dereferenceable(4) %69)
  %71 = load float, ptr %70, align 4, !tbaa !11
  %72 = load i32, ptr %12, align 4, !tbaa !4
  %73 = sext i32 %72 to i64
  %74 = getelementptr inbounds [3 x float], ptr %14, i64 0, i64 %73
  store float %71, ptr %74, align 4, !tbaa !11
  br label %75

75:                                               ; preds = %44
  %76 = load i32, ptr %12, align 4, !tbaa !4
  %77 = add nsw i32 %76, 1
  store i32 %77, ptr %12, align 4, !tbaa !4
  br label %41, !llvm.loop !18

78:                                               ; preds = %41
  br label %79

79:                                               ; preds = %78
  %80 = load i32, ptr %11, align 4, !tbaa !4
  %81 = add nsw i32 %80, 1
  store i32 %81, ptr %11, align 4, !tbaa !4
  br label %36, !llvm.loop !19

82:                                               ; preds = %36
  store i32 0, ptr %12, align 4, !tbaa !4
  br label %83

83:                                               ; preds = %109, %82
  %84 = load i32, ptr %12, align 4, !tbaa !4
  %85 = icmp slt i32 %84, 3
  br i1 %85, label %86, label %112

86:                                               ; preds = %83
  %87 = load i32, ptr %12, align 4, !tbaa !4
  %88 = sext i32 %87 to i64
  %89 = getelementptr inbounds [3 x float], ptr %14, i64 0, i64 %88
  %90 = load float, ptr %89, align 4, !tbaa !11
  %91 = load i32, ptr %12, align 4, !tbaa !4
  %92 = sext i32 %91 to i64
  %93 = getelementptr inbounds [3 x float], ptr %13, i64 0, i64 %92
  %94 = load float, ptr %93, align 4, !tbaa !11
  %95 = fsub float %90, %94
  %96 = load ptr, ptr %9, align 8, !tbaa !8
  %97 = load i32, ptr %12, align 4, !tbaa !4
  %98 = sext i32 %97 to i64
  %99 = getelementptr inbounds float, ptr %96, i64 %98
  %100 = load float, ptr %99, align 4, !tbaa !11
  %101 = call float @llvm.fmuladd.f32(float 2.000000e+00, float %100, float %95)
  %102 = load ptr, ptr %8, align 8, !tbaa !8
  %103 = load i32, ptr %12, align 4, !tbaa !4
  %104 = sext i32 %103 to i64
  %105 = getelementptr inbounds [3 x float], ptr %102, i64 %104
  %106 = load i32, ptr %12, align 4, !tbaa !4
  %107 = sext i32 %106 to i64
  %108 = getelementptr inbounds [3 x float], ptr %105, i64 0, i64 %107
  store float %101, ptr %108, align 4, !tbaa !11
  br label %109

109:                                              ; preds = %86
  %110 = load i32, ptr %12, align 4, !tbaa !4
  %111 = add nsw i32 %110, 1
  store i32 %111, ptr %12, align 4, !tbaa !4
  br label %83, !llvm.loop !20

112:                                              ; preds = %83
  %113 = load i8, ptr %10, align 1, !tbaa !15, !range !21, !noundef !22
  %114 = trunc i8 %113 to i1
  br i1 %114, label %115, label %163

115:                                              ; preds = %112
  store i32 0, ptr %11, align 4, !tbaa !4
  br label %116

116:                                              ; preds = %159, %115
  %117 = load i32, ptr %11, align 4, !tbaa !4
  %118 = load i32, ptr %6, align 4, !tbaa !4
  %119 = icmp slt i32 %117, %118
  br i1 %119, label %120, label %162

120:                                              ; preds = %116
  store i32 0, ptr %12, align 4, !tbaa !4
  br label %121

121:                                              ; preds = %155, %120
  %122 = load i32, ptr %12, align 4, !tbaa !4
  %123 = icmp slt i32 %122, 3
  br i1 %123, label %124, label %158

124:                                              ; preds = %121
  %125 = load ptr, ptr %8, align 8, !tbaa !8
  %126 = load i32, ptr %12, align 4, !tbaa !4
  %127 = sext i32 %126 to i64
  %128 = getelementptr inbounds [3 x float], ptr %125, i64 %127
  %129 = load i32, ptr %12, align 4, !tbaa !4
  %130 = sext i32 %129 to i64
  %131 = getelementptr inbounds [3 x float], ptr %128, i64 0, i64 %130
  %132 = load float, ptr %131, align 4, !tbaa !11
  %133 = load i32, ptr %12, align 4, !tbaa !4
  %134 = sext i32 %133 to i64
  %135 = getelementptr inbounds [3 x float], ptr %13, i64 0, i64 %134
  %136 = load float, ptr %135, align 4, !tbaa !11
  %137 = fsub float %132, %136
  %138 = load i32, ptr %12, align 4, !tbaa !4
  %139 = sext i32 %138 to i64
  %140 = getelementptr inbounds [3 x float], ptr %14, i64 0, i64 %139
  %141 = load float, ptr %140, align 4, !tbaa !11
  %142 = fsub float %137, %141
  %143 = fpext float %142 to double
  %144 = load ptr, ptr %7, align 8, !tbaa !8
  %145 = load i32, ptr %11, align 4, !tbaa !4
  %146 = sext i32 %145 to i64
  %147 = getelementptr inbounds [3 x float], ptr %144, i64 %146
  %148 = load i32, ptr %12, align 4, !tbaa !4
  %149 = sext i32 %148 to i64
  %150 = getelementptr inbounds [3 x float], ptr %147, i64 0, i64 %149
  %151 = load float, ptr %150, align 4, !tbaa !11
  %152 = fpext float %151 to double
  %153 = call double @llvm.fmuladd.f64(double 5.000000e-01, double %143, double %152)
  %154 = fptrunc double %153 to float
  store float %154, ptr %150, align 4, !tbaa !11
  br label %155

155:                                              ; preds = %124
  %156 = load i32, ptr %12, align 4, !tbaa !4
  %157 = add nsw i32 %156, 1
  store i32 %157, ptr %12, align 4, !tbaa !4
  br label %121, !llvm.loop !23

158:                                              ; preds = %121
  br label %159

159:                                              ; preds = %158
  %160 = load i32, ptr %11, align 4, !tbaa !4
  %161 = add nsw i32 %160, 1
  store i32 %161, ptr %11, align 4, !tbaa !4
  br label %116, !llvm.loop !24

162:                                              ; preds = %116
  br label %163

163:                                              ; preds = %162, %112
  call void @llvm.lifetime.end.p0(i64 12, ptr %14) #5
  call void @llvm.lifetime.end.p0(i64 12, ptr %13) #5
  call void @llvm.lifetime.end.p0(i64 4, ptr %12) #5
  call void @llvm.lifetime.end.p0(i64 4, ptr %11) #5
  ret void
}