; Function Attrs: mustprogress nofree norecurse nosync nounwind memory(argmem: readwrite) uwtable
define void @_Z12make_new_boxiPA3_fS0_PKfb(i32 noundef %0, ptr noundef captures(none) %1, ptr noundef captures(none) %2, ptr noundef readonly captures(none) %3, i1 noundef zeroext %4) local_unnamed_addr #4 {
.preheader52:
  %5 = alloca [3 x float], align 4
  %6 = alloca [3 x float], align 4
  call void @llvm.lifetime.start.p0(i64 12, ptr nonnull %5) #6
  call void @llvm.lifetime.start.p0(i64 12, ptr nonnull %6) #6
  call void @llvm.memcpy.p0.p0.i64(ptr noundef nonnull align 4 dereferenceable(12) %6, ptr noundef nonnull align 4 dereferenceable(12) %1, i64 12, i1 false), !tbaa !4
  call void @llvm.memcpy.p0.p0.i64(ptr noundef nonnull align 4 dereferenceable(12) %5, ptr noundef nonnull align 4 dereferenceable(12) %1, i64 12, i1 false), !tbaa !4
  %7 = icmp sgt i32 %0, 1
  br i1 %7, label %.preheader51.preheader, label %.preheader50.preheader

.preheader51.preheader:                           ; preds = %.preheader52
  %wide.trip.count = zext nneg i32 %0 to i64
  br label %.preheader51

.preheader51:                                     ; preds = %.preheader51.preheader, %19
  %indvars.iv61 = phi i64 [ 1, %.preheader51.preheader ], [ %indvars.iv.next62, %19 ]
  br label %8

8:                                                ; preds = %.preheader51, %8
  %indvars.iv = phi i64 [ 0, %.preheader51 ], [ %indvars.iv.next, %8 ]
  %9 = getelementptr inbounds nuw [3 x float], ptr %5, i64 0, i64 %indvars.iv
  %10 = getelementptr inbounds nuw [3 x float], ptr %1, i64 %indvars.iv61, i64 %indvars.iv
  %11 = load float, ptr %10, align 4, !tbaa !4
  %12 = load float, ptr %9, align 4, !tbaa !4
  %13 = fcmp olt float %11, %12
  %14 = select i1 %13, float %11, float %12
  store float %14, ptr %9, align 4, !tbaa !4
  %15 = getelementptr inbounds nuw [3 x float], ptr %6, i64 0, i64 %indvars.iv
  %16 = load float, ptr %15, align 4, !tbaa !4
  %17 = fcmp olt float %16, %11
  %18 = select i1 %17, float %11, float %16
  store float %18, ptr %15, align 4, !tbaa !4
  %indvars.iv.next = add nuw nsw i64 %indvars.iv, 1
  %exitcond.not = icmp eq i64 %indvars.iv.next, 3
  br i1 %exitcond.not, label %19, label %8, !llvm.loop !12

19:                                               ; preds = %8
  %indvars.iv.next62 = add nuw nsw i64 %indvars.iv61, 1
  %exitcond64.not = icmp eq i64 %indvars.iv.next62, %wide.trip.count
  br i1 %exitcond64.not, label %.preheader50.preheader, label %.preheader51, !llvm.loop !13

.preheader50.preheader:                           ; preds = %19, %.preheader52
  br label %.preheader50

.preheader50:                                     ; preds = %.preheader50.preheader, %.preheader50
  %indvars.iv65 = phi i64 [ %indvars.iv.next66, %.preheader50 ], [ 0, %.preheader50.preheader ]
  %20 = getelementptr inbounds nuw [3 x float], ptr %6, i64 0, i64 %indvars.iv65
  %21 = load float, ptr %20, align 4, !tbaa !4
  %22 = getelementptr inbounds nuw [3 x float], ptr %5, i64 0, i64 %indvars.iv65
  %23 = load float, ptr %22, align 4, !tbaa !4
  %24 = fsub float %21, %23
  %25 = getelementptr inbounds nuw float, ptr %3, i64 %indvars.iv65
  %26 = load float, ptr %25, align 4, !tbaa !4
  %27 = tail call float @llvm.fmuladd.f32(float %26, float 2.000000e+00, float %24)
  %28 = getelementptr inbounds nuw [3 x float], ptr %2, i64 %indvars.iv65, i64 %indvars.iv65
  store float %27, ptr %28, align 4, !tbaa !4
  %indvars.iv.next66 = add nuw nsw i64 %indvars.iv65, 1
  %exitcond68.not = icmp eq i64 %indvars.iv.next66, 3
  br i1 %exitcond68.not, label %29, label %.preheader50, !llvm.loop !14

29:                                               ; preds = %.preheader50
  %30 = icmp sgt i32 %0, 0
  %or.cond = and i1 %4, %30
  br i1 %or.cond, label %.preheader.preheader, label %.loopexit

.preheader.preheader:                             ; preds = %29
  %wide.trip.count76 = zext nneg i32 %0 to i64
  br label %.preheader

.preheader:                                       ; preds = %.preheader.preheader, %46
  %indvars.iv73 = phi i64 [ 0, %.preheader.preheader ], [ %indvars.iv.next74, %46 ]
  br label %31

31:                                               ; preds = %.preheader, %31
  %indvars.iv69 = phi i64 [ 0, %.preheader ], [ %indvars.iv.next70, %31 ]
  %32 = getelementptr inbounds nuw [3 x float], ptr %2, i64 %indvars.iv69, i64 %indvars.iv69
  %33 = load float, ptr %32, align 4, !tbaa !4
  %34 = getelementptr inbounds nuw [3 x float], ptr %5, i64 0, i64 %indvars.iv69
  %35 = load float, ptr %34, align 4, !tbaa !4
  %36 = fsub float %33, %35
  %37 = getelementptr inbounds nuw [3 x float], ptr %6, i64 0, i64 %indvars.iv69
  %38 = load float, ptr %37, align 4, !tbaa !4
  %39 = fsub float %36, %38
  %40 = fpext float %39 to double
  %41 = getelementptr inbounds nuw [3 x float], ptr %1, i64 %indvars.iv73, i64 %indvars.iv69
  %42 = load float, ptr %41, align 4, !tbaa !4
  %43 = fpext float %42 to double
  %44 = tail call double @llvm.fmuladd.f64(double %40, double 5.000000e-01, double %43)
  %45 = fptrunc double %44 to float
  store float %45, ptr %41, align 4, !tbaa !4
  %indvars.iv.next70 = add nuw nsw i64 %indvars.iv69, 1
  %exitcond72.not = icmp eq i64 %indvars.iv.next70, 3
  br i1 %exitcond72.not, label %46, label %31, !llvm.loop !15

46:                                               ; preds = %31
  %indvars.iv.next74 = add nuw nsw i64 %indvars.iv73, 1
  %exitcond77.not = icmp eq i64 %indvars.iv.next74, %wide.trip.count76
  br i1 %exitcond77.not, label %.loopexit, label %.preheader, !llvm.loop !16

.loopexit:                                        ; preds = %46, %29
  call void @llvm.lifetime.end.p0(i64 12, ptr nonnull %6) #6
  call void @llvm.lifetime.end.p0(i64 12, ptr nonnull %5) #6
  ret void
}